#include <math.h>
#include <stdio.h>
#include <stdlib.h>
#include <string.h>

int main()
{
int a[1010];
int k,i,j,n;
scanf("%d %d",&n,&k);
for(i=0;i<=n-1;i++)
scanf("%d ",&a[i]);
for(i=0;i<=n-1;i++)
{
   for(j=0;j<=n-1;j++)
   {
	   if(a[i]+a[j]==k){
		   printf("yes");return 0;}
    }
}
printf("no");
return 0;
}