; ModuleID = 'source-C-CXX/2/2714.c'
source_filename = "source-C-CXX/2/2714.c"
target datalayout = "e-m:e-p270:32:32-p271:32:32-p272:64:64-i64:64-f80:128-n8:16:32:64-S128"
target triple = "x86_64-pc-linux-gnu"

@.str = private unnamed_addr constant [6 x i8] c"%d %d\00", align 1
@.str.1 = private unnamed_addr constant [4 x i8] c"%d \00", align 1
@.str.2 = private unnamed_addr constant [4 x i8] c"yes\00", align 1
@.str.3 = private unnamed_addr constant [3 x i8] c"no\00", align 1

; Function Attrs: nofree nounwind sspstrong uwtable
define dso_local i32 @main() local_unnamed_addr #0 {
  %1 = alloca [1010 x i32], align 16
  %2 = alloca i32, align 4
  %3 = alloca i32, align 4
  %4 = bitcast [1010 x i32]* %1 to i8*
  call void @llvm.lifetime.start.p0i8(i64 4040, i8* nonnull %4) #3
  %5 = bitcast i32* %2 to i8*
  call void @llvm.lifetime.start.p0i8(i64 4, i8* nonnull %5) #3
  %6 = bitcast i32* %3 to i8*
  call void @llvm.lifetime.start.p0i8(i64 4, i8* nonnull %6) #3
  %7 = call i32 (i8*, ...) @__isoc99_scanf(i8* getelementptr inbounds ([6 x i8], [6 x i8]* @.str, i64 0, i64 0), i32* nonnull %3, i32* nonnull %2)
  %8 = load i32, i32* %3, align 4, !tbaa !5
  %9 = icmp sgt i32 %8, 0
  br i1 %9, label %31, label %39

10:                                               ; preds = %31
  %11 = load i32, i32* %2, align 4
  %12 = icmp sgt i32 %36, 0
  br i1 %12, label %13, label %39

13:                                               ; preds = %10
  %14 = zext i32 %36 to i64
  br label %15

15:                                               ; preds = %13, %28
  %16 = phi i64 [ 0, %13 ], [ %29, %28 ]
  %17 = getelementptr inbounds [1010 x i32], [1010 x i32]* %1, i64 0, i64 %16
  %18 = load i32, i32* %17, align 4, !tbaa !5
  br label %21

19:                                               ; preds = %21
  %20 = icmp eq i64 %27, %14
  br i1 %20, label %28, label %21, !llvm.loop !9

21:                                               ; preds = %15, %19
  %22 = phi i64 [ 0, %15 ], [ %27, %19 ]
  %23 = getelementptr inbounds [1010 x i32], [1010 x i32]* %1, i64 0, i64 %22
  %24 = load i32, i32* %23, align 4, !tbaa !5
  %25 = add nsw i32 %24, %18
  %26 = icmp eq i32 %25, %11
  %27 = add nuw nsw i64 %22, 1
  br i1 %26, label %39, label %19

28:                                               ; preds = %19
  %29 = add nuw nsw i64 %16, 1
  %30 = icmp eq i64 %29, %14
  br i1 %30, label %39, label %15, !llvm.loop !11

31:                                               ; preds = %0, %31
  %32 = phi i64 [ %35, %31 ], [ 0, %0 ]
  %33 = getelementptr inbounds [1010 x i32], [1010 x i32]* %1, i64 0, i64 %32
  %34 = call i32 (i8*, ...) @__isoc99_scanf(i8* getelementptr inbounds ([4 x i8], [4 x i8]* @.str.1, i64 0, i64 0), i32* nonnull %33)
  %35 = add nuw nsw i64 %32, 1
  %36 = load i32, i32* %3, align 4, !tbaa !5
  %37 = sext i32 %36 to i64
  %38 = icmp slt i64 %35, %37
  br i1 %38, label %31, label %10, !llvm.loop !12

39:                                               ; preds = %28, %21, %10, %0
  %40 = phi i8* [ getelementptr inbounds ([3 x i8], [3 x i8]* @.str.3, i64 0, i64 0), %0 ], [ getelementptr inbounds ([3 x i8], [3 x i8]* @.str.3, i64 0, i64 0), %10 ], [ getelementptr inbounds ([4 x i8], [4 x i8]* @.str.2, i64 0, i64 0), %21 ], [ getelementptr inbounds ([3 x i8], [3 x i8]* @.str.3, i64 0, i64 0), %28 ]
  %41 = call i32 (i8*, ...) @printf(i8* nonnull dereferenceable(1) %40)
  call void @llvm.lifetime.end.p0i8(i64 4, i8* nonnull %6) #3
  call void @llvm.lifetime.end.p0i8(i64 4, i8* nonnull %5) #3
  call void @llvm.lifetime.end.p0i8(i64 4040, i8* nonnull %4) #3
  ret i32 0
}

; Function Attrs: argmemonly mustprogress nofree nosync nounwind willreturn
declare void @llvm.lifetime.start.p0i8(i64 immarg, i8* nocapture) #1

; Function Attrs: nofree nounwind
declare noundef i32 @__isoc99_scanf(i8* nocapture noundef readonly, ...) local_unnamed_addr #2

; Function Attrs: nofree nounwind
declare noundef i32 @printf(i8* nocapture noundef readonly, ...) local_unnamed_addr #2

; Function Attrs: argmemonly mustprogress nofree nosync nounwind willreturn
declare void @llvm.lifetime.end.p0i8(i64 immarg, i8* nocapture) #1


!llvm.module.flags = !{!0, !1, !2, !3}
!llvm.ident = !{!4}

!0 = !{i32 1, !"wchar_size", i32 4}
!1 = !{i32 7, !"PIC Level", i32 2}
!2 = !{i32 7, !"PIE Level", i32 2}
!3 = !{i32 7, !"uwtable", i32 1}
!4 = !{!"clang version 13.0.0"}
!5 = !{!6, !6, i64 0}
!6 = !{!"int", !7, i64 0}
!7 = !{!"omnipotent char", !8, i64 0}
!8 = !{!"Simple C/C++ TBAA"}
!9 = distinct !{!9, !10}
!10 = !{!"llvm.loop.mustprogress"}
!11 = distinct !{!11, !10}
!12 = distinct !{!12, !10}
